; ModuleID = 'source-C-CXX/32/1302.c'
source_filename = "source-C-CXX/32/1302.c"
target datalayout = "e-m:e-p270:32:32-p271:32:32-p272:64:64-i64:64-f80:128-n8:16:32:64-S128"
target triple = "x86_64-pc-linux-gnu"

@.str = private unnamed_addr constant [3 x i8] c"%d\00", align 1
@.str.1 = private unnamed_addr constant [3 x i8] c"%s\00", align 1

; Function Attrs: nofree nounwind sspstrong uwtable
define dso_local i32 @main() local_unnamed_addr #0 {
  %1 = alloca i32, align 4
  %2 = alloca [10000 x [260 x i8]], align 16
  %3 = bitcast i32* %1 to i8*
  call void @llvm.lifetime.start.p0i8(i64 4, i8* nonnull %3) #4
  %4 = getelementptr inbounds [10000 x [260 x i8]], [10000 x [260 x i8]]* %2, i64 0, i64 0, i64 0
  call void @llvm.lifetime.start.p0i8(i64 2600000, i8* nonnull %4) #4
  %5 = call i32 (i8*, ...) @__isoc99_scanf(i8* getelementptr inbounds ([3 x i8], [3 x i8]* @.str, i64 0, i64 0), i32* nonnull %1)
  %6 = load i32, i32* %1, align 4, !tbaa !5
  %7 = icmp slt i32 %6, 1
  br i1 %7, label %38, label %10

8:                                                ; preds = %10
  %9 = icmp slt i32 %15, 1
  br i1 %9, label %38, label %18

10:                                               ; preds = %0, %10
  %11 = phi i64 [ %14, %10 ], [ 1, %0 ]
  %12 = getelementptr inbounds [10000 x [260 x i8]], [10000 x [260 x i8]]* %2, i64 0, i64 %11, i64 0
  %13 = call i32 (i8*, ...) @__isoc99_scanf(i8* getelementptr inbounds ([3 x i8], [3 x i8]* @.str.1, i64 0, i64 0), i8* nonnull %12)
  %14 = add nuw nsw i64 %11, 1
  %15 = load i32, i32* %1, align 4, !tbaa !5
  %16 = sext i32 %15 to i64
  %17 = icmp slt i64 %11, %16
  br i1 %17, label %10, label %8, !llvm.loop !9

18:                                               ; preds = %8, %31
  %19 = phi i64 [ %34, %31 ], [ 1, %8 ]
  br label %20

20:                                               ; preds = %18, %29
  %21 = phi i64 [ 0, %18 ], [ %30, %29 ]
  %22 = getelementptr inbounds [10000 x [260 x i8]], [10000 x [260 x i8]]* %2, i64 0, i64 %19, i64 %21
  %23 = load i8, i8* %22, align 1, !tbaa !11
  switch i8 %23, label %29 [
    i8 0, label %31
    i8 65, label %27
    i8 67, label %24
    i8 71, label %25
    i8 84, label %26
  ]

24:                                               ; preds = %20
  br label %27

25:                                               ; preds = %20
  br label %27

26:                                               ; preds = %20
  br label %27

27:                                               ; preds = %20, %24, %26, %25
  %28 = phi i8 [ 67, %25 ], [ 65, %26 ], [ 71, %24 ], [ 84, %20 ]
  store i8 %28, i8* %22, align 1, !tbaa !11
  br label %29

29:                                               ; preds = %27, %20
  %30 = add nuw i64 %21, 1
  br label %20, !llvm.loop !12

31:                                               ; preds = %20
  %32 = getelementptr inbounds [10000 x [260 x i8]], [10000 x [260 x i8]]* %2, i64 0, i64 %19, i64 0
  %33 = call i32 @puts(i8* nonnull %32)
  %34 = add nuw nsw i64 %19, 1
  %35 = load i32, i32* %1, align 4, !tbaa !5
  %36 = sext i32 %35 to i64
  %37 = icmp slt i64 %19, %36
  br i1 %37, label %18, label %38, !llvm.loop !13

38:                                               ; preds = %31, %0, %8
  call void @llvm.lifetime.end.p0i8(i64 2600000, i8* nonnull %4) #4
  call void @llvm.lifetime.end.p0i8(i64 4, i8* nonnull %3) #4
  ret i32 0
}

; Function Attrs: argmemonly mustprogress nofree nosync nounwind willreturn
declare void @llvm.lifetime.start.p0i8(i64 immarg, i8* nocapture) #1

; Function Attrs: nofree nounwind
declare noundef i32 @__isoc99_scanf(i8* nocapture noundef readonly, ...) local_unnamed_addr #2

; Function Attrs: argmemonly mustprogress nofree nosync nounwind willreturn
declare void @llvm.lifetime.end.p0i8(i64 immarg, i8* nocapture) #1

; Function Attrs: nofree nounwind
declare noundef i32 @puts(i8* nocapture noundef readonly) local_unnamed_addr #3


!llvm.module.flags = !{!0, !1, !2, !3}
!llvm.ident = !{!4}

!0 = !{i32 1, !"wchar_size", i32 4}
!1 = !{i32 7, !"PIC Level", i32 2}
!2 = !{i32 7, !"PIE Level", i32 2}
!3 = !{i32 7, !"uwtable", i32 1}
!4 = !{!"clang version 13.0.0"}
!5 = !{!6, !6, i64 0}
!6 = !{!"int", !7, i64 0}
!7 = !{!"omnipotent char", !8, i64 0}
!8 = !{!"Simple C/C++ TBAA"}
!9 = distinct !{!9, !10}
!10 = !{!"llvm.loop.mustprogress"}
!11 = !{!7, !7, i64 0}
!12 = distinct !{!12, !10}
!13 = distinct !{!13, !10}
